; Function Attrs: mustprogress uwtable
define dso_local void @_ZN12DFSOutputMgr19output_comment_lineERSoRKNSt7__cxx1112basic_stringIcSt11char_traitsIcESaIcEEE(ptr noundef nonnull align 8 dereferenceable(40) %0, ptr noundef nonnull align 8 dereferenceable(8) %1, ptr noundef nonnull align 8 dereferenceable(32) %2) unnamed_addr #3 align 2 {
  %4 = tail call noundef zeroext i1 @_ZN9CGOptions14compact_outputEv()
  br i1 %4, label %6, label %5

5:                                                ; preds = %3
  tail call void @_ZN9OutputMgr19output_comment_lineERSoRKNSt7__cxx1112basic_stringIcSt11char_traitsIcESaIcEEE(ptr noundef nonnull align 8 dereferenceable(8) %0, ptr noundef nonnull align 8 dereferenceable(8) %1, ptr noundef nonnull align 8 dereferenceable(32) %2)
  br label %6

6:                                                ; preds = %5, %3
  ret void
}